target datalayout = "e-m:e-p270:32:32-p271:32:32-p272:64:64-i64:64-i128:128-f80:128-n8:16:32:64-S128"
target triple = "x86_64-pc-linux-gnu"

%struct.reftable_buf = type { i64, i64, ptr }

; Function Attrs: nounwind uwtable
define dso_local i32 @reftable_buf_cmp(ptr noundef %0, ptr noundef %1) #0 {
  %3 = alloca i32, align 4
  %4 = alloca ptr, align 8
  %5 = alloca ptr, align 8
  %6 = alloca i64, align 8
  %7 = alloca i32, align 4
  %8 = alloca i32, align 4
  store ptr %0, ptr %4, align 8, !tbaa !12
  store ptr %1, ptr %5, align 8, !tbaa !12
  call void @llvm.lifetime.start.p0(i64 8, ptr %6) #13
  %9 = load ptr, ptr %4, align 8, !tbaa !12
  %10 = getelementptr inbounds nuw %struct.reftable_buf, ptr %9, i32 0, i32 1
  %11 = load i64, ptr %10, align 8, !tbaa !18
  %12 = load ptr, ptr %5, align 8, !tbaa !12
  %13 = getelementptr inbounds nuw %struct.reftable_buf, ptr %12, i32 0, i32 1
  %14 = load i64, ptr %13, align 8, !tbaa !18
  %15 = icmp ult i64 %11, %14
  br i1 %15, label %16, label %20

16:                                               ; preds = %2
  %17 = load ptr, ptr %4, align 8, !tbaa !12
  %18 = getelementptr inbounds nuw %struct.reftable_buf, ptr %17, i32 0, i32 1
  %19 = load i64, ptr %18, align 8, !tbaa !18
  br label %24

20:                                               ; preds = %2
  %21 = load ptr, ptr %5, align 8, !tbaa !12
  %22 = getelementptr inbounds nuw %struct.reftable_buf, ptr %21, i32 0, i32 1
  %23 = load i64, ptr %22, align 8, !tbaa !18
  br label %24

24:                                               ; preds = %20, %16
  %25 = phi i64 [ %19, %16 ], [ %23, %20 ]
  store i64 %25, ptr %6, align 8, !tbaa !4
  %26 = load i64, ptr %6, align 8, !tbaa !4
  %27 = icmp ne i64 %26, 0
  br i1 %27, label %28, label %45

28:                                               ; preds = %24
  call void @llvm.lifetime.start.p0(i64 4, ptr %7) #13
  %29 = load ptr, ptr %4, align 8, !tbaa !12
  %30 = getelementptr inbounds nuw %struct.reftable_buf, ptr %29, i32 0, i32 2
  %31 = load ptr, ptr %30, align 8, !tbaa !15
  %32 = load ptr, ptr %5, align 8, !tbaa !12
  %33 = getelementptr inbounds nuw %struct.reftable_buf, ptr %32, i32 0, i32 2
  %34 = load ptr, ptr %33, align 8, !tbaa !15
  %35 = load i64, ptr %6, align 8, !tbaa !4
  %36 = call i32 @memcmp(ptr noundef %31, ptr noundef %34, i64 noundef %35) #14
  store i32 %36, ptr %7, align 4, !tbaa !20
  %37 = load i32, ptr %7, align 4, !tbaa !20
  %38 = icmp ne i32 %37, 0
  br i1 %38, label %39, label %41

39:                                               ; preds = %28
  %40 = load i32, ptr %7, align 4, !tbaa !20
  store i32 %40, ptr %3, align 4
  store i32 1, ptr %8, align 4
  br label %42

41:                                               ; preds = %28
  store i32 0, ptr %8, align 4
  br label %42

42:                                               ; preds = %41, %39
  call void @llvm.lifetime.end.p0(i64 4, ptr %7) #13
  %43 = load i32, ptr %8, align 4
  switch i32 %43, label %65 [
    i32 0, label %44
  ]

44:                                               ; preds = %42
  br label %45

45:                                               ; preds = %44, %24
  %46 = load ptr, ptr %4, align 8, !tbaa !12
  %47 = getelementptr inbounds nuw %struct.reftable_buf, ptr %46, i32 0, i32 1
  %48 = load i64, ptr %47, align 8, !tbaa !18
  %49 = load ptr, ptr %5, align 8, !tbaa !12
  %50 = getelementptr inbounds nuw %struct.reftable_buf, ptr %49, i32 0, i32 1
  %51 = load i64, ptr %50, align 8, !tbaa !18
  %52 = icmp ult i64 %48, %51
  br i1 %52, label %53, label %54

53:                                               ; preds = %45
  br label %63

54:                                               ; preds = %45
  %55 = load ptr, ptr %4, align 8, !tbaa !12
  %56 = getelementptr inbounds nuw %struct.reftable_buf, ptr %55, i32 0, i32 1
  %57 = load i64, ptr %56, align 8, !tbaa !18
  %58 = load ptr, ptr %5, align 8, !tbaa !12
  %59 = getelementptr inbounds nuw %struct.reftable_buf, ptr %58, i32 0, i32 1
  %60 = load i64, ptr %59, align 8, !tbaa !18
  %61 = icmp ne i64 %57, %60
  %62 = zext i1 %61 to i32
  br label %63

63:                                               ; preds = %54, %53
  %64 = phi i32 [ -1, %53 ], [ %62, %54 ]
  store i32 %64, ptr %3, align 4
  store i32 1, ptr %8, align 4
  br label %65

65:                                               ; preds = %63, %42
  call void @llvm.lifetime.end.p0(i64 8, ptr %6) #13
  %66 = load i32, ptr %3, align 4
  ret i32 %66
}