; Function Attrs: mustprogress nofree nounwind willreturn memory(read, inaccessiblemem: none) uwtable
define dso_local i32 @reftable_buf_cmp(ptr noundef readonly captures(none) %0, ptr noundef readonly captures(none) %1) local_unnamed_addr #10 {
  %3 = getelementptr inbounds nuw i8, ptr %0, i64 8
  %4 = load i64, ptr %3, align 8, !tbaa !13
  %5 = getelementptr inbounds nuw i8, ptr %1, i64 8
  %6 = load i64, ptr %5, align 8, !tbaa !13
  %. = tail call i64 @llvm.umin.i64(i64 %4, i64 %6)
  %.not = icmp eq i64 %., 0
  br i1 %.not, label %13, label %7

7:                                                ; preds = %2
  %8 = getelementptr inbounds nuw i8, ptr %0, i64 16
  %9 = load ptr, ptr %8, align 8, !tbaa !8
  %10 = getelementptr inbounds nuw i8, ptr %1, i64 16
  %11 = load ptr, ptr %10, align 8, !tbaa !8
  %12 = tail call i32 @memcmp(ptr noundef %9, ptr noundef %11, i64 noundef %.) #23
  %.not21 = icmp eq i32 %12, 0
  br i1 %.not21, label %13, label %15

13:                                               ; preds = %7, %2
  %14 = tail call i32 @llvm.ucmp.i32.i64(i64 %4, i64 %6)
  br label %15

15:                                               ; preds = %7, %13
  %.1 = phi i32 [ %14, %13 ], [ %12, %7 ]
  ret i32 %.1
}